target datalayout = "e-m:e-p270:32:32-p271:32:32-p272:64:64-i64:64-i128:128-f80:128-n8:16:32:64-S128"
target triple = "x86_64-pc-linux-gnu"

%struct.__va_list_tag = type { i32, i32, ptr, ptr }

; Function Attrs: nounwind uwtable
define internal i32 @php_info_printf(ptr noundef %0, ...) #0 {
  %2 = alloca ptr, align 8
  %3 = alloca ptr, align 8
  %4 = alloca i64, align 8
  %5 = alloca i64, align 8
  %6 = alloca [1 x %struct.__va_list_tag], align 16
  store ptr %0, ptr %2, align 8
  %7 = getelementptr inbounds [1 x %struct.__va_list_tag], ptr %6, i64 0, i64 0
  call void @llvm.va_start(ptr %7)
  %8 = load ptr, ptr %2, align 8
  %9 = getelementptr inbounds [1 x %struct.__va_list_tag], ptr %6, i64 0, i64 0
  %10 = call i64 @zend_vspprintf(ptr noundef %3, i64 noundef 0, ptr noundef %8, ptr noundef %9)
  store i64 %10, ptr %4, align 8
  %11 = getelementptr inbounds [1 x %struct.__va_list_tag], ptr %6, i64 0, i64 0
  call void @llvm.va_end(ptr %11)
  %12 = load ptr, ptr %3, align 8
  %13 = load i64, ptr %4, align 8
  %14 = call i64 @php_output_write(ptr noundef %12, i64 noundef %13)
  store i64 %14, ptr %5, align 8
  %15 = load ptr, ptr %3, align 8
  call void @_efree(ptr noundef %15)
  %16 = load i64, ptr %5, align 8
  %17 = trunc i64 %16 to i32
  ret i32 %17
}