; Function Attrs: nounwind uwtable
define internal void @php_info_printf(ptr noundef %0, ...) unnamed_addr #0 {
  %2 = alloca ptr, align 8
  %3 = alloca [1 x %struct.__va_list_tag], align 16
  call void @llvm.va_start(ptr nonnull %3)
  %4 = call i64 @zend_vspprintf(ptr noundef nonnull %2, i64 noundef 0, ptr noundef %0, ptr noundef nonnull %3) #14
  call void @llvm.va_end(ptr nonnull %3)
  %5 = load ptr, ptr %2, align 8
  %6 = call i64 @php_output_write(ptr noundef %5, i64 noundef %4) #14
  %7 = load ptr, ptr %2, align 8
  call void @_efree(ptr noundef %7) #14
  ret void
}